; Function Attrs: mustprogress uwtable
define noundef zeroext i1 @_ZNK8facebook5velox7MapType10equivalentERKNS0_4TypeE(ptr noundef nonnull readonly align 8 dereferenceable(80) %this, ptr noundef nonnull readonly align 8 dereferenceable(17) %other) unnamed_addr #0 align 2 {
entry:
  %cmp = icmp eq ptr %other, %this
  br i1 %cmp, label %return, label %_ZNK8facebook5velox4Type13hasSameTypeIdERKS1_.exit

_ZNK8facebook5velox4Type13hasSameTypeIdERKS1_.exit: ; preds = %entry
  %vtable.i = load ptr, ptr %this, align 8
  %0 = getelementptr inbounds i8, ptr %vtable.i, i64 -8
  %1 = load ptr, ptr %0, align 8
  %vtable2.i = load ptr, ptr %other, align 8
  %2 = getelementptr inbounds i8, ptr %vtable2.i, i64 -8
  %3 = load ptr, ptr %2, align 8
  %__name.i = getelementptr inbounds i8, ptr %1, i64 8
  %4 = load ptr, ptr %__name.i, align 8
  %__name2.i = getelementptr inbounds i8, ptr %3, i64 8
  %5 = load ptr, ptr %__name2.i, align 8
  %cmp.i = icmp eq ptr %4, %5
  br i1 %cmp.i, label %if.end3, label %if.end.i

if.end.i:                                         ; preds = %_ZNK8facebook5velox4Type13hasSameTypeIdERKS1_.exit
  %6 = load i8, ptr %4, align 1
  %cmp4.not.i = icmp eq i8 %6, 42
  br i1 %cmp4.not.i, label %return, label %_ZNKSt9type_infoeqERKS_.exit

_ZNKSt9type_infoeqERKS_.exit:                     ; preds = %if.end.i
  %7 = load i8, ptr %5, align 1
  %cmp.i.i = icmp eq i8 %7, 42
  %cond.idx.i.i = zext i1 %cmp.i.i to i64
  %cond.i.i = getelementptr inbounds i8, ptr %5, i64 %cond.idx.i.i
  %call6.i = tail call i32 @strcmp(ptr noundef nonnull dereferenceable(1) %4, ptr noundef nonnull dereferenceable(1) %cond.i.i) #37
  %cmp7.i = icmp eq i32 %call6.i, 0
  br i1 %cmp7.i, label %if.end3, label %return

if.end3:                                          ; preds = %_ZNK8facebook5velox4Type13hasSameTypeIdERKS1_.exit, %_ZNKSt9type_infoeqERKS_.exit
  %8 = tail call ptr @__dynamic_cast(ptr nonnull %other, ptr nonnull @_ZTIN8facebook5velox4TypeE, ptr nonnull @_ZTIN8facebook5velox7MapTypeE, i64 0) #37
  %9 = icmp eq ptr %8, null
  br i1 %9, label %dynamic_cast.bad_cast.i.i, label %_ZNK8facebook5velox4Type5asMapEv.exit

dynamic_cast.bad_cast.i.i:                        ; preds = %if.end3
  tail call void @__cxa_bad_cast() #39
  unreachable

_ZNK8facebook5velox4Type5asMapEv.exit:            ; preds = %if.end3
  %keyType_ = getelementptr inbounds i8, ptr %this, i64 24
  %10 = load ptr, ptr %keyType_, align 8
  %keyType_6 = getelementptr inbounds i8, ptr %8, i64 24
  %11 = load ptr, ptr %keyType_6, align 8
  %vtable = load ptr, ptr %10, align 8
  %vfn = getelementptr inbounds i8, ptr %vtable, i64 88
  %12 = load ptr, ptr %vfn, align 8
  %call8 = tail call noundef zeroext i1 %12(ptr noundef nonnull align 8 dereferenceable(17) %10, ptr noundef nonnull align 8 dereferenceable(17) %11)
  br i1 %call8, label %land.rhs, label %return

land.rhs:                                         ; preds = %_ZNK8facebook5velox4Type5asMapEv.exit
  %valueType_ = getelementptr inbounds i8, ptr %this, i64 40
  %13 = load ptr, ptr %valueType_, align 8
  %valueType_10 = getelementptr inbounds i8, ptr %8, i64 40
  %14 = load ptr, ptr %valueType_10, align 8
  %vtable12 = load ptr, ptr %13, align 8
  %vfn13 = getelementptr inbounds i8, ptr %vtable12, i64 88
  %15 = load ptr, ptr %vfn13, align 8
  %call14 = tail call noundef zeroext i1 %15(ptr noundef nonnull align 8 dereferenceable(17) %13, ptr noundef nonnull align 8 dereferenceable(17) %14)
  br label %return

return:                                           ; preds = %if.end.i, %_ZNK8facebook5velox4Type5asMapEv.exit, %land.rhs, %_ZNKSt9type_infoeqERKS_.exit, %entry
  %retval.0 = phi i1 [ true, %entry ], [ false, %_ZNKSt9type_infoeqERKS_.exit ], [ false, %_ZNK8facebook5velox4Type5asMapEv.exit ], [ %call14, %land.rhs ], [ false, %if.end.i ]
  ret i1 %retval.0
}